; Function Attrs: mustprogress nofree norecurse nosync nounwind willreturn memory(read, inaccessiblemem: none) uwtable
define ptr @Tim_ManBoxDelayTable(ptr noundef readonly captures(none) %0, i32 noundef %1) local_unnamed_addr #3 {
  %.val7 = load ptr, ptr %0, align 8, !tbaa !3
  %3 = getelementptr i8, ptr %.val7, i64 8
  %.val7.val = load ptr, ptr %3, align 8, !tbaa !15
  %4 = sext i32 %1 to i64
  %5 = getelementptr inbounds ptr, ptr %.val7.val, i64 %4
  %6 = load ptr, ptr %5, align 8, !tbaa !19
  %7 = getelementptr inbounds nuw i8, ptr %6, i64 16
  %8 = load i32, ptr %7, align 4, !tbaa !20
  %9 = icmp slt i32 %8, 0
  br i1 %9, label %17, label %10

10:                                               ; preds = %2
  %11 = getelementptr inbounds nuw i8, ptr %0, i64 8
  %12 = load ptr, ptr %11, align 8, !tbaa !36
  %13 = getelementptr i8, ptr %12, i64 8
  %.val = load ptr, ptr %13, align 8, !tbaa !15
  %14 = zext nneg i32 %8 to i64
  %15 = getelementptr inbounds nuw ptr, ptr %.val, i64 %14
  %16 = load ptr, ptr %15, align 8, !tbaa !19
  br label %17

17:                                               ; preds = %2, %10
  %.0 = phi ptr [ %16, %10 ], [ null, %2 ]
  ret ptr %.0
}